; Function Attrs: nofree norecurse nosync nounwind memory(none) uwtable
define hidden i64 @minAND(i64 noundef %0, i64 noundef %1, i64 noundef %2, i64 noundef %3) local_unnamed_addr #5 {
  %.demorgan = or i64 %2, %0
  %5 = xor i64 %.demorgan, -1
  br label %6

6:                                                ; preds = %4, %15
  %.026 = phi i64 [ -9223372036854775808, %4 ], [ %16, %15 ]
  %7 = and i64 %.026, %5
  %.not23 = icmp eq i64 %7, 0
  br i1 %.not23, label %15, label %8

8:                                                ; preds = %6
  %9 = or i64 %.026, %0
  %10 = sub i64 0, %.026
  %11 = and i64 %9, %10
  %.not24 = icmp ugt i64 %11, %1
  br i1 %.not24, label %12, label %17

12:                                               ; preds = %8
  %13 = or i64 %.026, %2
  %14 = and i64 %13, %10
  %.not25 = icmp ugt i64 %14, %3
  br i1 %.not25, label %15, label %17

15:                                               ; preds = %12, %6
  %16 = lshr i64 %.026, 1
  %.not = icmp ult i64 %.026, 2
  br i1 %.not, label %17, label %6

17:                                               ; preds = %12, %8, %15
  %.020 = phi i64 [ %2, %15 ], [ %2, %8 ], [ %14, %12 ]
  %.019 = phi i64 [ %0, %15 ], [ %11, %8 ], [ %0, %12 ]
  %18 = and i64 %.019, %.020
  ret i64 %18
}